; Function Attrs: mustprogress nounwind uwtable
define internal void @_ZN4absl18container_internal12_GLOBAL__N_128Fixture_ConstructNoArgs_TestD0Ev(ptr noundef nonnull align 8 dereferenceable(32) initializes((0, 8)) %0) unnamed_addr #12 align 2 personality ptr @__gxx_personality_v0 {
  store ptr getelementptr inbounds nuw inrange(-16, 48) (i8, ptr @_ZTVN4absl18container_internal12_GLOBAL__N_17FixtureE, i64 16), ptr %0, align 8, !tbaa !4
  %2 = getelementptr inbounds nuw i8, ptr %0, i64 24
  %3 = load ptr, ptr %2, align 8, !tbaa !341
  %4 = load ptr, ptr %3, align 8, !tbaa !35
  %5 = getelementptr inbounds nuw i8, ptr %3, i64 16
  %6 = icmp eq ptr %4, %5
  br i1 %6, label %_ZNKSt7__cxx1112basic_stringIcSt11char_traitsIcESaIcEE11_M_is_localEv.exit.thread.i.i.i.i.i, label %_ZNKSt7__cxx1112basic_stringIcSt11char_traitsIcESaIcEE11_M_is_localEv.exit.i.i.i.i.i

_ZNKSt7__cxx1112basic_stringIcSt11char_traitsIcESaIcEE11_M_is_localEv.exit.thread.i.i.i.i.i: ; preds = %1
  %7 = getelementptr inbounds nuw i8, ptr %3, i64 8
  %8 = load i64, ptr %7, align 8, !tbaa !41
  %9 = icmp ult i64 %8, 16
  tail call void @llvm.assume(i1 %9)
  br label %_ZN4absl18container_internal12_GLOBAL__N_17FixtureD2Ev.exit

_ZNKSt7__cxx1112basic_stringIcSt11char_traitsIcESaIcEE11_M_is_localEv.exit.i.i.i.i.i: ; preds = %1
  %10 = load i64, ptr %5, align 8, !tbaa !42
  %11 = add i64 %10, 1
  tail call void @_ZdlPvm(ptr noundef %4, i64 noundef %11) #29
  %.pre.i = load ptr, ptr %2, align 8, !tbaa !341
  br label %_ZN4absl18container_internal12_GLOBAL__N_17FixtureD2Ev.exit

_ZN4absl18container_internal12_GLOBAL__N_17FixtureD2Ev.exit: ; preds = %_ZNKSt7__cxx1112basic_stringIcSt11char_traitsIcESaIcEE11_M_is_localEv.exit.thread.i.i.i.i.i, %_ZNKSt7__cxx1112basic_stringIcSt11char_traitsIcESaIcEE11_M_is_localEv.exit.i.i.i.i.i
  %12 = phi ptr [ %.pre.i, %_ZNKSt7__cxx1112basic_stringIcSt11char_traitsIcESaIcEE11_M_is_localEv.exit.i.i.i.i.i ], [ %3, %_ZNKSt7__cxx1112basic_stringIcSt11char_traitsIcESaIcEE11_M_is_localEv.exit.thread.i.i.i.i.i ]
  tail call void @_ZdlPvm(ptr noundef %12, i64 noundef 32) #29
  tail call void @_ZN7testing4TestD2Ev(ptr noundef nonnull align 8 dereferenceable(32) %0) #27
  tail call void @_ZdlPvm(ptr noundef nonnull %0, i64 noundef 32) #29
  ret void
}